target datalayout = "e-m:e-p270:32:32-p271:32:32-p272:64:64-i64:64-i128:128-f80:128-n8:16:32:64-S128"
target triple = "x86_64-pc-linux-gnu"

%"class.spacer::lemma_cluster" = type <{ ptr, %class.arith_util, %class.bv_util, i32, [4 x i8], %class.obj_ref, i32, [4 x i8], %class.vector, %"class.spacer::sem_matcher", i32, [4 x i8] }>
%class.arith_util = type { ptr, ptr }
%class.bv_util = type { %class.bv_recognizers, ptr, ptr }
%class.bv_recognizers = type { i32 }
%class.obj_ref = type { ptr, ptr }
%class.vector = type { ptr }
%"class.spacer::sem_matcher" = type { ptr, %class.arith_util, %class.ref_vector, ptr, %class.svector }
%class.ref_vector = type { %class.ref_vector_core }
%class.ref_vector_core = type { %class.ref_manager_wrapper, %class.ptr_vector }
%class.ref_manager_wrapper = type { ptr }
%class.ptr_vector = type { %class.vector.0 }
%class.vector.0 = type { ptr }
%class.svector = type { %class.vector.1 }
%class.vector.1 = type { ptr }
%"class.spacer::lemma_cluster::lemma_info" = type { %class.ref, %class.substitution }
%class.ref = type { ptr }
%class.substitution = type <{ ptr, %class.var_offset_map, %class.svector.33, %class.ref_vector, %class.svector.22, %class.svector.35, %class.expr_offset_map, %class.ref_vector, %class.expr_offset_map.38, i32, [4 x i8] }>
%class.var_offset_map = type <{ %class.svector.31, i32, i32, i32, [4 x i8] }>
%class.svector.31 = type { %class.vector.32 }
%class.vector.32 = type { ptr }
%class.svector.33 = type { %class.vector.34 }
%class.vector.34 = type { ptr }
%class.svector.22 = type { %class.vector.23 }
%class.vector.23 = type { ptr }
%class.svector.35 = type { %class.vector.36 }
%class.vector.36 = type { ptr }
%class.expr_offset_map = type <{ %class.vector.37, i32, [4 x i8] }>
%class.vector.37 = type { ptr }
%class.expr_offset_map.38 = type <{ %class.vector.39, i32, [4 x i8] }>
%class.vector.39 = type { ptr }

; Function Attrs: mustprogress nounwind uwtable
define linkonce_odr hidden noundef i32 @_ZNK6vectorIN6spacer13lemma_cluster10lemma_infoELb1EjE4sizeEv(ptr noundef nonnull align 8 dereferenceable(8) %0) #5 comdat align 2 {
  %2 = alloca i32, align 4
  %3 = alloca ptr, align 8
  store ptr %0, ptr %3, align 8, !tbaa !41
  %4 = load ptr, ptr %3, align 8
  %5 = getelementptr inbounds nuw %class.vector, ptr %4, i32 0, i32 0
  %6 = load ptr, ptr %5, align 8, !tbaa !43
  %7 = icmp eq ptr %6, null
  br i1 %7, label %8, label %9

8:                                                ; preds = %1
  store i32 0, ptr %2, align 4
  br label %14

9:                                                ; preds = %1
  %10 = getelementptr inbounds nuw %class.vector, ptr %4, i32 0, i32 0
  %11 = load ptr, ptr %10, align 8, !tbaa !43
  %12 = getelementptr inbounds i32, ptr %11, i64 -1
  %13 = load i32, ptr %12, align 4, !tbaa !47
  store i32 %13, ptr %2, align 4
  br label %14

14:                                               ; preds = %9, %8
  %15 = load i32, ptr %2, align 4
  ret i32 %15
}

; Function Attrs: mustprogress nounwind uwtable
define linkonce_odr hidden noundef nonnull align 8 dereferenceable(8) ptr @_ZNK6spacer13lemma_cluster10lemma_info9get_lemmaEv(ptr noundef nonnull align 8 dereferenceable(136) %0) #5 comdat align 2 {
  %2 = alloca ptr, align 8
  store ptr %0, ptr %2, align 8, !tbaa !46
  %3 = load ptr, ptr %2, align 8
  %4 = getelementptr inbounds nuw %"class.spacer::lemma_cluster::lemma_info", ptr %3, i32 0, i32 0
  ret ptr %4
}

; Function Attrs: mustprogress nounwind uwtable
define linkonce_odr hidden noundef ptr @_ZNK3refIN6spacer5lemmaEEptEv(ptr noundef nonnull align 8 dereferenceable(8) %0) #5 comdat align 2 {
  %2 = alloca ptr, align 8
  store ptr %0, ptr %2, align 8, !tbaa !53
  %3 = load ptr, ptr %2, align 8
  %4 = getelementptr inbounds nuw %class.ref, ptr %3, i32 0, i32 0
  %5 = load ptr, ptr %4, align 8, !tbaa !55
  ret ptr %5
}

; Function Attrs: mustprogress nounwind uwtable
define linkonce_odr hidden noundef ptr @_ZNK6vectorIN6spacer13lemma_cluster10lemma_infoELb1EjE3endEv(ptr noundef nonnull align 8 dereferenceable(8) %0) #5 comdat align 2 {
  %2 = alloca ptr, align 8
  store ptr %0, ptr %2, align 8, !tbaa !41
  %3 = load ptr, ptr %2, align 8
  %4 = getelementptr inbounds nuw %class.vector, ptr %3, i32 0, i32 0
  %5 = load ptr, ptr %4, align 8, !tbaa !43
  %6 = call noundef i32 @_ZNK6vectorIN6spacer13lemma_cluster10lemma_infoELb1EjE4sizeEv(ptr noundef nonnull align 8 dereferenceable(8) %3)
  %7 = zext i32 %6 to i64
  %8 = getelementptr inbounds nuw %"class.spacer::lemma_cluster::lemma_info", ptr %5, i64 %7
  ret ptr %8
}

; Function Attrs: mustprogress nounwind uwtable
define linkonce_odr hidden noundef ptr @_ZNK6vectorIN6spacer13lemma_cluster10lemma_infoELb1EjE5beginEv(ptr noundef nonnull align 8 dereferenceable(8) %0) #5 comdat align 2 {
  %2 = alloca ptr, align 8
  store ptr %0, ptr %2, align 8, !tbaa !41
  %3 = load ptr, ptr %2, align 8
  %4 = getelementptr inbounds nuw %class.vector, ptr %3, i32 0, i32 0
  %5 = load ptr, ptr %4, align 8, !tbaa !43
  ret ptr %5
}

; Function Attrs: mustprogress nounwind uwtable
define linkonce_odr hidden noundef nonnull align 8 dereferenceable(8) ptr @_ZNK6spacer13lemma_cluster10get_lemmasEv(ptr noundef nonnull align 8 dereferenceable(148) %0) #5 comdat align 2 {
  %2 = alloca ptr, align 8
  store ptr %0, ptr %2, align 8, !tbaa !3
  %3 = load ptr, ptr %2, align 8
  %4 = getelementptr inbounds nuw %"class.spacer::lemma_cluster", ptr %3, i32 0, i32 8
  ret ptr %4
}

; Function Attrs: mustprogress uwtable
define hidden noundef zeroext i1 @_ZN6spacer13lemma_cluster8containsERK3refINS_5lemmaEE(ptr noundef nonnull align 8 dereferenceable(148) %0, ptr noundef nonnull align 8 dereferenceable(8) %1) #4 align 2 {
  %3 = alloca i1, align 1
  %4 = alloca ptr, align 8
  %5 = alloca ptr, align 8
  %6 = alloca ptr, align 8
  %7 = alloca ptr, align 8
  %8 = alloca ptr, align 8
  %9 = alloca i32, align 4
  %10 = alloca ptr, align 8
  store ptr %0, ptr %4, align 8, !tbaa !3
  store ptr %1, ptr %5, align 8, !tbaa !53
  %11 = load ptr, ptr %4, align 8
  call void @llvm.lifetime.start.p0(i64 8, ptr %6) #3
  %12 = call noundef nonnull align 8 dereferenceable(8) ptr @_ZNK6spacer13lemma_cluster10get_lemmasEv(ptr noundef nonnull align 8 dereferenceable(148) %11)
  store ptr %12, ptr %6, align 8, !tbaa !41
  call void @llvm.lifetime.start.p0(i64 8, ptr %7) #3
  %13 = load ptr, ptr %6, align 8, !tbaa !41
  %14 = call noundef ptr @_ZNK6vectorIN6spacer13lemma_cluster10lemma_infoELb1EjE5beginEv(ptr noundef nonnull align 8 dereferenceable(8) %13)
  store ptr %14, ptr %7, align 8, !tbaa !46
  call void @llvm.lifetime.start.p0(i64 8, ptr %8) #3
  %15 = load ptr, ptr %6, align 8, !tbaa !41
  %16 = call noundef ptr @_ZNK6vectorIN6spacer13lemma_cluster10lemma_infoELb1EjE3endEv(ptr noundef nonnull align 8 dereferenceable(8) %15)
  store ptr %16, ptr %8, align 8, !tbaa !46
  br label %17

17:                                               ; preds = %37, %2
  %18 = load ptr, ptr %7, align 8, !tbaa !46
  %19 = load ptr, ptr %8, align 8, !tbaa !46
  %20 = icmp ne ptr %18, %19
  br i1 %20, label %22, label %21

21:                                               ; preds = %17
  store i32 2, ptr %9, align 4
  br label %40

22:                                               ; preds = %17
  call void @llvm.lifetime.start.p0(i64 8, ptr %10) #3
  %23 = load ptr, ptr %7, align 8, !tbaa !46
  store ptr %23, ptr %10, align 8, !tbaa !46
  %24 = load ptr, ptr %5, align 8, !tbaa !53
  %25 = call noundef ptr @_ZNK3refIN6spacer5lemmaEEptEv(ptr noundef nonnull align 8 dereferenceable(8) %24)
  %26 = call noundef ptr @_ZN6spacer5lemma8get_exprEv(ptr noundef nonnull align 8 dereferenceable(109) %25)
  %27 = load ptr, ptr %10, align 8, !tbaa !46
  %28 = call noundef nonnull align 8 dereferenceable(8) ptr @_ZNK6spacer13lemma_cluster10lemma_info9get_lemmaEv(ptr noundef nonnull align 8 dereferenceable(136) %27)
  %29 = call noundef ptr @_ZNK3refIN6spacer5lemmaEEptEv(ptr noundef nonnull align 8 dereferenceable(8) %28)
  %30 = call noundef ptr @_ZN6spacer5lemma8get_exprEv(ptr noundef nonnull align 8 dereferenceable(109) %29)
  %31 = icmp eq ptr %26, %30
  br i1 %31, label %32, label %33

32:                                               ; preds = %22
  store i1 true, ptr %3, align 1
  store i32 1, ptr %9, align 4
  br label %34

33:                                               ; preds = %22
  store i32 0, ptr %9, align 4
  br label %34

34:                                               ; preds = %33, %32
  call void @llvm.lifetime.end.p0(i64 8, ptr %10) #3
  %35 = load i32, ptr %9, align 4
  switch i32 %35, label %40 [
    i32 0, label %36
  ]

36:                                               ; preds = %34
  br label %37

37:                                               ; preds = %36
  %38 = load ptr, ptr %7, align 8, !tbaa !46
  %39 = getelementptr inbounds nuw %"class.spacer::lemma_cluster::lemma_info", ptr %38, i32 1
  store ptr %39, ptr %7, align 8, !tbaa !46
  br label %17

40:                                               ; preds = %34, %21
  call void @llvm.lifetime.end.p0(i64 8, ptr %8) #3
  call void @llvm.lifetime.end.p0(i64 8, ptr %7) #3
  call void @llvm.lifetime.end.p0(i64 8, ptr %6) #3
  %41 = load i32, ptr %9, align 4
  switch i32 %41, label %45 [
    i32 2, label %42
    i32 1, label %43
  ]

42:                                               ; preds = %40
  store i1 false, ptr %3, align 1
  br label %43

43:                                               ; preds = %42, %40
  %44 = load i1, ptr %3, align 1
  ret i1 %44

45:                                               ; preds = %40
  unreachable
}