; Function Attrs: mustprogress uwtable
define hidden noundef zeroext i1 @_ZN6spacer13lemma_cluster8containsERK3refINS_5lemmaEE(ptr noundef nonnull readonly align 8 captures(none) dereferenceable(148) %0, ptr noundef nonnull readonly align 8 captures(none) dereferenceable(8) %1) local_unnamed_addr #3 align 2 {
  %3 = getelementptr inbounds nuw i8, ptr %0, i64 80
  %4 = load ptr, ptr %3, align 8, !tbaa !37
  %5 = icmp eq ptr %4, null
  br i1 %5, label %._crit_edge, label %_ZNK6vectorIN6spacer13lemma_cluster10lemma_infoELb1EjE3endEv.exit

_ZNK6vectorIN6spacer13lemma_cluster10lemma_infoELb1EjE3endEv.exit: ; preds = %2
  %6 = getelementptr inbounds i8, ptr %4, i64 -4
  %7 = load i32, ptr %6, align 4, !tbaa !42
  %8 = zext i32 %7 to i64
  %9 = getelementptr inbounds nuw %"class.spacer::lemma_cluster::lemma_info", ptr %4, i64 %8
  %.not15.not = icmp eq i32 %7, 0
  br i1 %.not15.not, label %._crit_edge, label %.lr.ph

.lr.ph:                                           ; preds = %_ZNK6vectorIN6spacer13lemma_cluster10lemma_infoELb1EjE3endEv.exit, %.lr.ph
  %.01316 = phi ptr [ %14, %.lr.ph ], [ %4, %_ZNK6vectorIN6spacer13lemma_cluster10lemma_infoELb1EjE3endEv.exit ]
  %10 = load ptr, ptr %1, align 8, !tbaa !47
  %11 = tail call noundef ptr @_ZN6spacer5lemma8get_exprEv(ptr noundef nonnull align 8 dereferenceable(109) %10)
  %12 = load ptr, ptr %.01316, align 8, !tbaa !47
  %13 = tail call noundef ptr @_ZN6spacer5lemma8get_exprEv(ptr noundef nonnull align 8 dereferenceable(109) %12)
  %.not14 = icmp eq ptr %11, %13
  %14 = getelementptr inbounds nuw i8, ptr %.01316, i64 136
  %.not.not = icmp eq ptr %14, %9
  %or.cond = select i1 %.not14, i1 true, i1 %.not.not
  br i1 %or.cond, label %._crit_edge, label %.lr.ph

._crit_edge:                                      ; preds = %.lr.ph, %2, %_ZNK6vectorIN6spacer13lemma_cluster10lemma_infoELb1EjE3endEv.exit
  %.not.lcssa = phi i1 [ false, %_ZNK6vectorIN6spacer13lemma_cluster10lemma_infoELb1EjE3endEv.exit ], [ false, %2 ], [ %.not14, %.lr.ph ]
  ret i1 %.not.lcssa
}